EXPORTS
_ZN10DU_MANAGER11Add_Def_UseEP2WNS1_
_ZNK3DCE7AliasedEPK9POINTS_TOS2_
_ZN10DU_MANAGER14CD_is_br_takenEj
_ZN10DU_MANAGER15CD_is_fall_thruEj
Copy_alias_info
_ZN10DU_MANAGER15Create_Def_ListEP2WN
Create_Du_Manager
_ZN10DU_MANAGER15Create_Use_ListEP2WN
_ZNK7CODEREP12Def_at_entryEv
_ZNK7CODEREP5DefbbEv
_ZN10DU_MANAGER14Delete_Def_UseEP2WNS1_
Delete_Du_Manager
_ZN10DU_MANAGER8DominateEjj
_ZN10DU_MANAGER10Du_Add_UseEP2WNS1_
Du_Built
_ZN10DU_MANAGER13Du_Delete_UseEP2WNS1_
_ZN10DU_MANAGER17Du_Set_IncompleteEP2WN
Dump_alias_mgr
_ZN10DU_MANAGER6Get_cdEj
_ZN10DU_MANAGER13Get_last_stmtEj
Get_symbol_info_for_cvt_io
_ZNK13ALIAS_MANAGER2IdEPK2WN
_ZN9POINTS_TO4MeetEPKS_P2ST
_ZN9DYN_ARRAYIjE6NewidxEv
_ZN9DYN_ARRAYIiE6NewidxEv
_ZN9DYN_ARRAYIP2WNE6NewidxEv
Perform_Global_Optimization
Perform_Preopt_Optimization
Points_to_copy
Pre_Optimizer
_ZN8DEF_LIST5PrintEP6_iobuf
_ZN8DEF_LIST5PrintEP8_IO_FILE
_ZN8DEF_LIST8ContainsEPK2WN
_ZN8USE_LIST5PrintEP6_iobuf
_ZN8USE_LIST5PrintEP8_IO_FILE
_ZN8USE_LIST8ContainsEPK2WN
_ZNK9POINTS_TO5PrintEP6_iobuf
_ZNK9POINTS_TO5PrintEP8_IO_FILE
_ZN8OPT_STAB16Print_alias_infoEP6_iobuf
_ZN8OPT_STAB16Print_alias_infoEP8_IO_FILE
Print_points_to
_ZN10DU_MANAGER22Remove_Def_From_SystemEP2WN
_ZN5SLIST15Remove_HeadnodeEv
_ZN10DU_MANAGER22Remove_Use_From_SystemEP2WN
_ZNK5STACKIjE3TopEv
_ZN10DU_MANAGER10Ud_Add_DefEP2WNS1_
_ZN10DU_MANAGER13Ud_Delete_DefEP2WNS1_
Verify_alias
_Z6WN_auxPK2WN
_Z9Warn_todoPcz
Wopt_Fini
Wopt_Init
_ZN9DYN_ARRAYIP2WNEC1EP8mem_pool
_ZN9DYN_ARRAYIjEC1EP8mem_pool
wopt_main
